ccopy_reg
_reconstructor
p0
(cdocopt
Dict
p1
c__builtin__
dict
p2
(dp3
S'--dir'
p4
S'./results/'
p5
sS'--balanced'
p6
I00
sS'--preprocessor'
p7
S'None'
p8
sS'--eval'
p9
I01
sS'--max_iterations'
p10
S'10000'
p11
sS'--overlap_y'
p12
S'8'
p13
sS'--overlap_x'
p14
g13
sS'--clean_data'
p15
I00
sS'original_directory'
p16
S'/idiap/project/biowave/biowave_v1/data/'
p17
sS'--block_x'
p18
S'19'
p19
sS'--block_y'
p20
S'19'
p21
sS'--help'
p22
I00
sS'--debug'
p23
I0
sS'--test_size'
p24
S'240'
p25
sS'save_path'
p26
S'./results/raw_size_19_8_grid_240_norm'
p27
sS'--name'
p28
S'raw_size_19_8_grid_240_norm'
p29
sS'--cut_roi'
p30
S'1'
p31
sS'original_extension'
p32
S'.png'
p33
stp34
Rp35
.F0.513993072453234
.